target datalayout = "e-m:e-p270:32:32-p271:32:32-p272:64:64-i64:64-i128:128-f80:128-n8:16:32:64-S128"
target triple = "x86_64-pc-linux-gnu"

%struct.redisObject = type { i32, i32, ptr }

@.str.1 = private unnamed_addr constant [8 x i8] c"t_set.c\00", align 1
@.str.3 = private unnamed_addr constant [21 x i8] c"Unknown set encoding\00", align 1

; Function Attrs: nounwind uwtable
define dso_local i32 @setTypeRemoveAux(ptr noundef %0, ptr noundef %1, i64 noundef %2, i64 noundef %3, i32 noundef %4) #0 {
  %6 = alloca i32, align 4
  %7 = alloca ptr, align 8
  %8 = alloca ptr, align 8
  %9 = alloca i64, align 8
  %10 = alloca i64, align 8
  %11 = alloca i32, align 4
  %12 = alloca [21 x i8], align 16
  %13 = alloca i32, align 4
  %14 = alloca i32, align 4
  %15 = alloca ptr, align 8
  %16 = alloca i32, align 4
  %17 = alloca ptr, align 8
  %18 = alloca ptr, align 8
  %19 = alloca i64, align 8
  %20 = alloca i32, align 4
  store ptr %0, ptr %7, align 8, !tbaa !41
  store ptr %1, ptr %8, align 8, !tbaa !5
  store i64 %2, ptr %9, align 8, !tbaa !10
  store i64 %3, ptr %10, align 8, !tbaa !10
  store i32 %4, ptr %11, align 4, !tbaa !45
  call void @llvm.lifetime.start.p0(i64 21, ptr %12) #10
  %21 = load ptr, ptr %8, align 8, !tbaa !5
  %22 = icmp ne ptr %21, null
  br i1 %22, label %44, label %23

23:                                               ; preds = %5
  %24 = load ptr, ptr %7, align 8, !tbaa !41
  %25 = load i32, ptr %24, align 8
  %26 = lshr i32 %25, 4
  %27 = and i32 %26, 15
  %28 = icmp eq i32 %27, 6
  br i1 %28, label %29, label %38

29:                                               ; preds = %23
  call void @llvm.lifetime.start.p0(i64 4, ptr %13) #10
  %30 = load ptr, ptr %7, align 8, !tbaa !41
  %31 = getelementptr inbounds nuw %struct.redisObject, ptr %30, i32 0, i32 2
  %32 = load ptr, ptr %31, align 8, !tbaa !43
  %33 = load i64, ptr %10, align 8, !tbaa !10
  %34 = call ptr @intsetRemove(ptr noundef %32, i64 noundef %33, ptr noundef %13)
  %35 = load ptr, ptr %7, align 8, !tbaa !41
  %36 = getelementptr inbounds nuw %struct.redisObject, ptr %35, i32 0, i32 2
  store ptr %34, ptr %36, align 8, !tbaa !43
  %37 = load i32, ptr %13, align 4, !tbaa !45
  store i32 %37, ptr %6, align 4
  store i32 1, ptr %14, align 4
  call void @llvm.lifetime.end.p0(i64 4, ptr %13) #10
  br label %144

38:                                               ; preds = %23
  %39 = getelementptr inbounds [21 x i8], ptr %12, i64 0, i64 0
  %40 = load i64, ptr %10, align 8, !tbaa !10
  %41 = call i32 @ll2string(ptr noundef %39, i64 noundef 21, i64 noundef %40)
  %42 = sext i32 %41 to i64
  store i64 %42, ptr %9, align 8, !tbaa !10
  %43 = getelementptr inbounds [21 x i8], ptr %12, i64 0, i64 0
  store ptr %43, ptr %8, align 8, !tbaa !5
  store i32 0, ptr %11, align 4, !tbaa !45
  br label %44

44:                                               ; preds = %38, %5
  %45 = load ptr, ptr %7, align 8, !tbaa !41
  %46 = load i32, ptr %45, align 8
  %47 = lshr i32 %46, 4
  %48 = and i32 %47, 15
  %49 = icmp eq i32 %48, 2
  br i1 %49, label %50, label %75

50:                                               ; preds = %44
  call void @llvm.lifetime.start.p0(i64 8, ptr %15) #10
  %51 = load i32, ptr %11, align 4, !tbaa !45
  %52 = icmp ne i32 %51, 0
  br i1 %52, label %53, label %55

53:                                               ; preds = %50
  %54 = load ptr, ptr %8, align 8, !tbaa !5
  br label %59

55:                                               ; preds = %50
  %56 = load ptr, ptr %8, align 8, !tbaa !5
  %57 = load i64, ptr %9, align 8, !tbaa !10
  %58 = call ptr @sdsnewlen(ptr noundef %56, i64 noundef %57)
  br label %59

59:                                               ; preds = %55, %53
  %60 = phi ptr [ %54, %53 ], [ %58, %55 ]
  store ptr %60, ptr %15, align 8, !tbaa !5
  call void @llvm.lifetime.start.p0(i64 4, ptr %16) #10
  %61 = load ptr, ptr %7, align 8, !tbaa !41
  %62 = getelementptr inbounds nuw %struct.redisObject, ptr %61, i32 0, i32 2
  %63 = load ptr, ptr %62, align 8, !tbaa !43
  %64 = load ptr, ptr %15, align 8, !tbaa !5
  %65 = call i32 @dictDelete(ptr noundef %63, ptr noundef %64)
  %66 = icmp eq i32 %65, 0
  %67 = zext i1 %66 to i32
  store i32 %67, ptr %16, align 4, !tbaa !45
  %68 = load ptr, ptr %15, align 8, !tbaa !5
  %69 = load ptr, ptr %8, align 8, !tbaa !5
  %70 = icmp ne ptr %68, %69
  br i1 %70, label %71, label %73

71:                                               ; preds = %59
  %72 = load ptr, ptr %15, align 8, !tbaa !5
  call void @sdsfree(ptr noundef %72)
  br label %73

73:                                               ; preds = %71, %59
  %74 = load i32, ptr %16, align 4, !tbaa !45
  store i32 %74, ptr %6, align 4
  store i32 1, ptr %14, align 4
  call void @llvm.lifetime.end.p0(i64 4, ptr %16) #10
  call void @llvm.lifetime.end.p0(i64 8, ptr %15) #10
  br label %144

75:                                               ; preds = %44
  %76 = load ptr, ptr %7, align 8, !tbaa !41
  %77 = load i32, ptr %76, align 8
  %78 = lshr i32 %77, 4
  %79 = and i32 %78, 15
  %80 = icmp eq i32 %79, 11
  br i1 %80, label %81, label %110

81:                                               ; preds = %75
  call void @llvm.lifetime.start.p0(i64 8, ptr %17) #10
  %82 = load ptr, ptr %7, align 8, !tbaa !41
  %83 = getelementptr inbounds nuw %struct.redisObject, ptr %82, i32 0, i32 2
  %84 = load ptr, ptr %83, align 8, !tbaa !43
  store ptr %84, ptr %17, align 8, !tbaa !5
  call void @llvm.lifetime.start.p0(i64 8, ptr %18) #10
  %85 = load ptr, ptr %17, align 8, !tbaa !5
  %86 = call ptr @lpFirst(ptr noundef %85)
  store ptr %86, ptr %18, align 8, !tbaa !5
  %87 = load ptr, ptr %18, align 8, !tbaa !5
  %88 = icmp eq ptr %87, null
  br i1 %88, label %89, label %90

89:                                               ; preds = %81
  store i32 0, ptr %6, align 4
  store i32 1, ptr %14, align 4
  br label %107

90:                                               ; preds = %81
  %91 = load ptr, ptr %17, align 8, !tbaa !5
  %92 = load ptr, ptr %18, align 8, !tbaa !5
  %93 = load ptr, ptr %8, align 8, !tbaa !5
  %94 = load i64, ptr %9, align 8, !tbaa !10
  %95 = trunc i64 %94 to i32
  %96 = call ptr @lpFind(ptr noundef %91, ptr noundef %92, ptr noundef %93, i32 noundef %95, i32 noundef 0)
  store ptr %96, ptr %18, align 8, !tbaa !5
  %97 = load ptr, ptr %18, align 8, !tbaa !5
  %98 = icmp ne ptr %97, null
  br i1 %98, label %99, label %106

99:                                               ; preds = %90
  %100 = load ptr, ptr %17, align 8, !tbaa !5
  %101 = load ptr, ptr %18, align 8, !tbaa !5
  %102 = call ptr @lpDelete(ptr noundef %100, ptr noundef %101, ptr noundef null)
  store ptr %102, ptr %17, align 8, !tbaa !5
  %103 = load ptr, ptr %17, align 8, !tbaa !5
  %104 = load ptr, ptr %7, align 8, !tbaa !41
  %105 = getelementptr inbounds nuw %struct.redisObject, ptr %104, i32 0, i32 2
  store ptr %103, ptr %105, align 8, !tbaa !43
  store i32 1, ptr %6, align 4
  store i32 1, ptr %14, align 4
  br label %107

106:                                              ; preds = %90
  store i32 0, ptr %14, align 4
  br label %107

107:                                              ; preds = %106, %99, %89
  call void @llvm.lifetime.end.p0(i64 8, ptr %18) #10
  call void @llvm.lifetime.end.p0(i64 8, ptr %17) #10
  %108 = load i32, ptr %14, align 4
  switch i32 %108, label %144 [
    i32 0, label %109
  ]

109:                                              ; preds = %107
  br label %142

110:                                              ; preds = %75
  %111 = load ptr, ptr %7, align 8, !tbaa !41
  %112 = load i32, ptr %111, align 8
  %113 = lshr i32 %112, 4
  %114 = and i32 %113, 15
  %115 = icmp eq i32 %114, 6
  br i1 %115, label %116, label %140

116:                                              ; preds = %110
  call void @llvm.lifetime.start.p0(i64 8, ptr %19) #10
  %117 = load ptr, ptr %8, align 8, !tbaa !5
  %118 = load i64, ptr %9, align 8, !tbaa !10
  %119 = call i32 @string2ll(ptr noundef %117, i64 noundef %118, ptr noundef %19)
  %120 = icmp ne i32 %119, 0
  br i1 %120, label %121, label %136

121:                                              ; preds = %116
  call void @llvm.lifetime.start.p0(i64 4, ptr %20) #10
  %122 = load ptr, ptr %7, align 8, !tbaa !41
  %123 = getelementptr inbounds nuw %struct.redisObject, ptr %122, i32 0, i32 2
  %124 = load ptr, ptr %123, align 8, !tbaa !43
  %125 = load i64, ptr %19, align 8, !tbaa !53
  %126 = call ptr @intsetRemove(ptr noundef %124, i64 noundef %125, ptr noundef %20)
  %127 = load ptr, ptr %7, align 8, !tbaa !41
  %128 = getelementptr inbounds nuw %struct.redisObject, ptr %127, i32 0, i32 2
  store ptr %126, ptr %128, align 8, !tbaa !43
  %129 = load i32, ptr %20, align 4, !tbaa !45
  %130 = icmp ne i32 %129, 0
  br i1 %130, label %131, label %132

131:                                              ; preds = %121
  store i32 1, ptr %6, align 4
  store i32 1, ptr %14, align 4
  br label %133

132:                                              ; preds = %121
  store i32 0, ptr %14, align 4
  br label %133

133:                                              ; preds = %132, %131
  call void @llvm.lifetime.end.p0(i64 4, ptr %20) #10
  %134 = load i32, ptr %14, align 4
  switch i32 %134, label %137 [
    i32 0, label %135
  ]

135:                                              ; preds = %133
  br label %136

136:                                              ; preds = %135, %116
  store i32 0, ptr %14, align 4
  br label %137

137:                                              ; preds = %136, %133
  call void @llvm.lifetime.end.p0(i64 8, ptr %19) #10
  %138 = load i32, ptr %14, align 4
  switch i32 %138, label %144 [
    i32 0, label %139
  ]

139:                                              ; preds = %137
  br label %141

140:                                              ; preds = %110
  call void (ptr, i32, ptr, ...) @_serverPanic(ptr noundef @.str.1, i32 noundef 263, ptr noundef @.str.3)
  call void @abort() #11
  unreachable

141:                                              ; preds = %139
  br label %142

142:                                              ; preds = %141, %109
  br label %143

143:                                              ; preds = %142
  store i32 0, ptr %6, align 4
  store i32 1, ptr %14, align 4
  br label %144

144:                                              ; preds = %143, %137, %107, %73, %29
  call void @llvm.lifetime.end.p0(i64 21, ptr %12) #10
  %145 = load i32, ptr %6, align 4
  ret i32 %145
}