; Function Attrs: nounwind uwtable
define dso_local i32 @setTypeRemoveAux(ptr noundef captures(none) %0, ptr noundef %1, i64 noundef %2, i64 noundef %3, i32 noundef %4) local_unnamed_addr #0 {
  %6 = alloca [21 x i8], align 16
  %7 = alloca i32, align 4
  %8 = alloca i64, align 8
  %9 = alloca i32, align 4
  call void @llvm.lifetime.start.p0(i64 21, ptr nonnull %6) #10
  %.not = icmp eq ptr %1, null
  br i1 %.not, label %10, label %22

10:                                               ; preds = %5
  %11 = load i32, ptr %0, align 8
  %12 = and i32 %11, 240
  %13 = icmp eq i32 %12, 96
  br i1 %13, label %14, label %19

14:                                               ; preds = %10
  call void @llvm.lifetime.start.p0(i64 4, ptr nonnull %7) #10
  %15 = getelementptr inbounds nuw i8, ptr %0, i64 8
  %16 = load ptr, ptr %15, align 8, !tbaa !38
  %17 = call ptr @intsetRemove(ptr noundef %16, i64 noundef %3, ptr noundef nonnull %7) #10
  store ptr %17, ptr %15, align 8, !tbaa !38
  %18 = load i32, ptr %7, align 4, !tbaa !57
  call void @llvm.lifetime.end.p0(i64 4, ptr nonnull %7) #10
  br label %.thread

19:                                               ; preds = %10
  %20 = call i32 @ll2string(ptr noundef nonnull %6, i64 noundef 21, i64 noundef %3) #10
  %21 = sext i32 %20 to i64
  br label %22

22:                                               ; preds = %19, %5
  %.045 = phi i64 [ %2, %5 ], [ %21, %19 ]
  %.044 = phi i32 [ %4, %5 ], [ 0, %19 ]
  %.040 = phi ptr [ %1, %5 ], [ %6, %19 ]
  %23 = load i32, ptr %0, align 8
  %24 = lshr i32 %23, 4
  %25 = and i32 %24, 15
  switch i32 %25, label %56 [
    i32 2, label %26
    i32 11, label %37
    i32 6, label %47
  ]

26:                                               ; preds = %22
  %.not54 = icmp eq i32 %.044, 0
  br i1 %.not54, label %27, label %29

27:                                               ; preds = %26
  %28 = call ptr @sdsnewlen(ptr noundef nonnull %.040, i64 noundef %.045) #10
  br label %29

29:                                               ; preds = %26, %27
  %30 = phi ptr [ %28, %27 ], [ %.040, %26 ]
  %31 = getelementptr inbounds nuw i8, ptr %0, i64 8
  %32 = load ptr, ptr %31, align 8, !tbaa !38
  %33 = call i32 @dictDelete(ptr noundef %32, ptr noundef %30) #10
  %34 = icmp eq i32 %33, 0
  %35 = zext i1 %34 to i32
  %.not55 = icmp eq ptr %30, %.040
  br i1 %.not55, label %.thread, label %36

36:                                               ; preds = %29
  call void @sdsfree(ptr noundef %30) #10
  br label %.thread

37:                                               ; preds = %22
  %38 = getelementptr inbounds nuw i8, ptr %0, i64 8
  %39 = load ptr, ptr %38, align 8, !tbaa !38
  %40 = call ptr @lpFirst(ptr noundef %39) #10
  %41 = icmp eq ptr %40, null
  br i1 %41, label %.thread, label %42

42:                                               ; preds = %37
  %43 = trunc i64 %.045 to i32
  %44 = call ptr @lpFind(ptr noundef %39, ptr noundef nonnull %40, ptr noundef nonnull %.040, i32 noundef %43, i32 noundef 0) #10
  %.not53 = icmp eq ptr %44, null
  br i1 %.not53, label %.thread, label %45

45:                                               ; preds = %42
  %46 = call ptr @lpDelete(ptr noundef %39, ptr noundef nonnull %44, ptr noundef null) #10
  store ptr %46, ptr %38, align 8, !tbaa !38
  br label %.thread

47:                                               ; preds = %22
  call void @llvm.lifetime.start.p0(i64 8, ptr nonnull %8) #10
  %48 = call i32 @string2ll(ptr noundef nonnull %.040, i64 noundef %.045, ptr noundef nonnull %8) #10
  %.not51 = icmp eq i32 %48, 0
  br i1 %.not51, label %.critedge, label %49

49:                                               ; preds = %47
  call void @llvm.lifetime.start.p0(i64 4, ptr nonnull %9) #10
  %50 = getelementptr inbounds nuw i8, ptr %0, i64 8
  %51 = load ptr, ptr %50, align 8, !tbaa !38
  %52 = load i64, ptr %8, align 8, !tbaa !58
  %53 = call ptr @intsetRemove(ptr noundef %51, i64 noundef %52, ptr noundef nonnull %9) #10
  store ptr %53, ptr %50, align 8, !tbaa !38
  %54 = load i32, ptr %9, align 4, !tbaa !57
  %.not52 = icmp eq i32 %54, 0
  call void @llvm.lifetime.end.p0(i64 4, ptr nonnull %9) #10
  br i1 %.not52, label %.critedge, label %55

.critedge:                                        ; preds = %49, %47
  call void @llvm.lifetime.end.p0(i64 8, ptr nonnull %8) #10
  br label %.thread

55:                                               ; preds = %49
  call void @llvm.lifetime.end.p0(i64 8, ptr nonnull %8) #10
  br label %.thread

56:                                               ; preds = %22
  call void (ptr, i32, ptr, ...) @_serverPanic(ptr noundef nonnull @.str.1, i32 noundef 263, ptr noundef nonnull @.str.3) #10
  call void @abort() #11
  unreachable

.thread:                                          ; preds = %37, %45, %.critedge, %42, %55, %29, %36, %14
  %.0 = phi i32 [ 1, %55 ], [ %18, %14 ], [ %35, %36 ], [ %35, %29 ], [ 0, %42 ], [ 0, %.critedge ], [ 0, %37 ], [ 1, %45 ]
  call void @llvm.lifetime.end.p0(i64 21, ptr nonnull %6) #10
  ret i32 %.0
}